; Function Attrs: null_pointer_is_valid sspstrong uwtable
define internal void @dissect_smc_exchangemedium(ptr noundef %0, ptr readnone captures(none) %1, ptr noundef %2, i32 noundef %3, i1 noundef zeroext %4, i1 noundef zeroext %5, i32 %6, ptr readnone captures(none) %7) #0 {
  %.not = icmp ne ptr %2, null
  %9 = and i1 %4, %5
  %brmerge22.not = and i1 %.not, %9
  br i1 %brmerge22.not, label %10, label %31

10:                                               ; preds = %8
  %11 = load i32, ptr @hf_scsi_smc_mta, align 4
  %12 = add i32 %3, 1
  %13 = tail call ptr @proto_tree_add_item(ptr noundef nonnull %2, i32 noundef %11, ptr noundef %0, i32 noundef %12, i32 noundef 2, i32 noundef 0)
  %14 = load i32, ptr @hf_scsi_smc_sa, align 4
  %15 = add i32 %3, 3
  %16 = tail call ptr @proto_tree_add_item(ptr noundef nonnull %2, i32 noundef %14, ptr noundef %0, i32 noundef %15, i32 noundef 2, i32 noundef 0)
  %17 = load i32, ptr @hf_scsi_smc_fda, align 4
  %18 = add i32 %3, 5
  %19 = tail call ptr @proto_tree_add_item(ptr noundef nonnull %2, i32 noundef %17, ptr noundef %0, i32 noundef %18, i32 noundef 2, i32 noundef 0)
  %20 = load i32, ptr @hf_scsi_smc_sda, align 4
  %21 = add i32 %3, 7
  %22 = tail call ptr @proto_tree_add_item(ptr noundef nonnull %2, i32 noundef %20, ptr noundef %0, i32 noundef %21, i32 noundef 2, i32 noundef 0)
  %23 = add i32 %3, 9
  %24 = load i32, ptr @hf_scsi_smc_medium_flags, align 4
  %25 = load i32, ptr @ett_scsi_exchange_medium, align 4
  %26 = tail call ptr @proto_tree_add_bitmask(ptr noundef nonnull %2, ptr noundef %0, i32 noundef %23, i32 noundef %24, i32 noundef %25, ptr noundef nonnull @dissect_smc_exchangemedium.exchg_fields, i32 noundef 0)
  %27 = add i32 %3, 10
  %28 = load i32, ptr @hf_scsi_control, align 4
  %29 = load i32, ptr @ett_scsi_control, align 4
  %30 = tail call ptr @proto_tree_add_bitmask(ptr noundef nonnull %2, ptr noundef %0, i32 noundef %27, i32 noundef %28, i32 noundef %29, ptr noundef nonnull @cdb_control_fields, i32 noundef 0)
  br label %31

31:                                               ; preds = %8, %10
  ret void
}